; ModuleID = '62/2353.c'
source_filename = "62/2353.c"
target datalayout = "e-m:e-p270:32:32-p271:32:32-p272:64:64-i64:64-f80:128-n8:16:32:64-S128"
target triple = "x86_64-pc-linux-gnu"

; Function Attrs: noinline nounwind uwtable
define dso_local i32 @main() #0 {
  %1 = alloca i32, align 4
  %2 = alloca [10000 x i32], align 16
  %3 = alloca i32, align 4
  %4 = alloca i32, align 4
  %5 = alloca i32, align 4
  %6 = alloca i32, align 4
  %7 = alloca i32, align 4
  store i32 0, i32* %1, align 4
  store i32 1, i32* %4, align 4
  br label %8

8:                                                ; preds = %25, %0
  %9 = load i32, i32* %4, align 4
  %10 = icmp sle i32 %9, 9999
  br i1 %10, label %11, label %28

11:                                               ; preds = %8
  %12 = call i32 @getchar()
  %13 = load i32, i32* %4, align 4
  %14 = sext i32 %13 to i64
  %15 = getelementptr inbounds [10000 x i32], [10000 x i32]* %2, i64 0, i64 %14
  store i32 %12, i32* %15, align 4
  %16 = load i32, i32* %4, align 4
  %17 = sext i32 %16 to i64
  %18 = getelementptr inbounds [10000 x i32], [10000 x i32]* %2, i64 0, i64 %17
  %19 = load i32, i32* %18, align 4
  %20 = icmp eq i32 %19, 10
  br i1 %20, label %21, label %24

21:                                               ; preds = %11
  %22 = load i32, i32* %4, align 4
  %23 = sub nsw i32 %22, 1
  store i32 %23, i32* %3, align 4
  br label %28

24:                                               ; preds = %11
  br label %25

25:                                               ; preds = %24
  %26 = load i32, i32* %4, align 4
  %27 = add nsw i32 %26, 1
  store i32 %27, i32* %4, align 4
  br label %8

28:                                               ; preds = %21, %8
  store i32 1, i32* %5, align 4
  br label %29

29:                                               ; preds = %71, %28
  %30 = load i32, i32* %5, align 4
  %31 = load i32, i32* %3, align 4
  %32 = sub nsw i32 %31, 1
  %33 = icmp sle i32 %30, %32
  br i1 %33, label %34, label %74

34:                                               ; preds = %29
  %35 = load i32, i32* %5, align 4
  %36 = sext i32 %35 to i64
  %37 = getelementptr inbounds [10000 x i32], [10000 x i32]* %2, i64 0, i64 %36
  %38 = load i32, i32* %37, align 4
  %39 = icmp eq i32 %38, 32
  br i1 %39, label %40, label %70

40:                                               ; preds = %34
  %41 = load i32, i32* %5, align 4
  %42 = add nsw i32 %41, 1
  %43 = sext i32 %42 to i64
  %44 = getelementptr inbounds [10000 x i32], [10000 x i32]* %2, i64 0, i64 %43
  %45 = load i32, i32* %44, align 4
  %46 = icmp eq i32 %45, 32
  br i1 %46, label %47, label %70

47:                                               ; preds = %40
  %48 = load i32, i32* %5, align 4
  %49 = add nsw i32 %48, 1
  store i32 %49, i32* %6, align 4
  br label %50

50:                                               ; preds = %64, %47
  %51 = load i32, i32* %6, align 4
  %52 = load i32, i32* %3, align 4
  %53 = sub nsw i32 %52, 1
  %54 = icmp sle i32 %51, %53
  br i1 %54, label %55, label %67

55:                                               ; preds = %50
  %56 = load i32, i32* %6, align 4
  %57 = add nsw i32 %56, 1
  %58 = sext i32 %57 to i64
  %59 = getelementptr inbounds [10000 x i32], [10000 x i32]* %2, i64 0, i64 %58
  %60 = load i32, i32* %59, align 4
  %61 = load i32, i32* %6, align 4
  %62 = sext i32 %61 to i64
  %63 = getelementptr inbounds [10000 x i32], [10000 x i32]* %2, i64 0, i64 %62
  store i32 %60, i32* %63, align 4
  br label %64

64:                                               ; preds = %55
  %65 = load i32, i32* %6, align 4
  %66 = add nsw i32 %65, 1
  store i32 %66, i32* %6, align 4
  br label %50

67:                                               ; preds = %50
  %68 = load i32, i32* %3, align 4
  %69 = sub nsw i32 %68, 1
  store i32 %69, i32* %3, align 4
  store i32 1, i32* %5, align 4
  br label %70

70:                                               ; preds = %67, %40, %34
  br label %71

71:                                               ; preds = %70
  %72 = load i32, i32* %5, align 4
  %73 = add nsw i32 %72, 1
  store i32 %73, i32* %5, align 4
  br label %29

74:                                               ; preds = %29
  store i32 1, i32* %7, align 4
  br label %75

75:                                               ; preds = %85, %74
  %76 = load i32, i32* %7, align 4
  %77 = load i32, i32* %3, align 4
  %78 = icmp sle i32 %76, %77
  br i1 %78, label %79, label %88

79:                                               ; preds = %75
  %80 = load i32, i32* %7, align 4
  %81 = sext i32 %80 to i64
  %82 = getelementptr inbounds [10000 x i32], [10000 x i32]* %2, i64 0, i64 %81
  %83 = load i32, i32* %82, align 4
  %84 = call i32 @putchar(i32 %83)
  br label %85

85:                                               ; preds = %79
  %86 = load i32, i32* %7, align 4
  %87 = add nsw i32 %86, 1
  store i32 %87, i32* %7, align 4
  br label %75

88:                                               ; preds = %75
  ret i32 0
}

declare dso_local i32 @getchar() #1

declare dso_local i32 @putchar(i32) #1


!llvm.module.flags = !{!0}
!llvm.ident = !{!1}

!0 = !{i32 1, !"wchar_size", i32 4}
!1 = !{!"clang version 10.0.0-4ubuntu1 "}
